target datalayout = "e-m:e-p270:32:32-p271:32:32-p272:64:64-i64:64-i128:128-f80:128-n8:16:32:64-S128"
target triple = "x86_64-pc-linux-gnu"

%class.ShenandoahMonitoringSupport = type { ptr, ptr, ptr, ptr, ptr, ptr, %class.ShenandoahPeriodicCountersUpdateTask }
%class.ShenandoahPeriodicCountersUpdateTask = type { %class.PeriodicTask, %struct.ShenandoahSharedFlag, %struct.ShenandoahSharedFlag, ptr }
%class.PeriodicTask = type { ptr, i32, i32 }
%struct.ShenandoahSharedFlag = type { [64 x i8], i8, [64 x i8] }
%"struct.Atomic::LoadImpl" = type { i8 }
%"struct.Atomic::PlatformOrderedLoad" = type { i8 }
%class.ScopedFence = type { ptr }
%"struct.Atomic::LoadImpl.2" = type { i8 }
%"struct.Atomic::PlatformLoad" = type { i8 }
%"struct.Atomic::StoreImpl" = type { i8 }
%"struct.Atomic::PlatformOrderedStore" = type { i8 }

@UsePerfData = external global i8, align 1
@_ZN8Universe14_collectedHeapE = external global ptr, align 8

; Function Attrs: mustprogress nounwind uwtable
define internal void @_ZL16compiler_barrierv() #1 {
  call void asm sideeffect "", "~{memory},~{dirflag},~{fpsr},~{flags}"() #4, !srcloc !6
  ret void
}

; Function Attrs: mustprogress nounwind uwtable
define linkonce_odr hidden void @_ZN11OrderAccess7acquireEv() #1 comdat align 2 {
  call void @_ZL16compiler_barrierv()
  ret void
}

; Function Attrs: mustprogress nounwind uwtable
define linkonce_odr hidden void @_ZN18ScopedFenceGeneralIL15ScopedFenceType0EE7postfixEv(ptr noundef nonnull align 1 dereferenceable(1) %0) #1 comdat align 2 {
  %2 = alloca ptr, align 8
  store ptr %0, ptr %2, align 8
  call void @_ZN11OrderAccess7acquireEv()
  ret void
}

; Function Attrs: mustprogress nounwind uwtable
define linkonce_odr hidden noundef signext i8 @_ZNK6Atomic12PlatformLoadILm1EEclIaEET_PVKS3_(ptr noundef nonnull align 1 dereferenceable(1) %0, ptr noundef %1) #1 comdat align 2 {
  %3 = alloca ptr, align 8
  %4 = alloca ptr, align 8
  store ptr %0, ptr %3, align 8
  store ptr %1, ptr %4, align 8
  %5 = load ptr, ptr %4, align 8
  %6 = load volatile i8, ptr %5, align 1
  ret i8 %6
}

; Function Attrs: mustprogress nounwind uwtable
define linkonce_odr hidden void @_ZN18ScopedFenceGeneralIL15ScopedFenceType0EE6prefixEv(ptr noundef nonnull align 1 dereferenceable(1) %0) #1 comdat align 2 {
  %2 = alloca ptr, align 8
  store ptr %0, ptr %2, align 8
  ret void
}

; Function Attrs: mustprogress nounwind uwtable
define linkonce_odr hidden void @_ZN11ScopedFenceIL15ScopedFenceType0EE7postfixEv(ptr noundef nonnull align 8 dereferenceable(8) %0) #1 comdat align 2 {
  %2 = alloca ptr, align 8
  store ptr %0, ptr %2, align 8
  %3 = load ptr, ptr %2, align 8
  call void @_ZN18ScopedFenceGeneralIL15ScopedFenceType0EE7postfixEv(ptr noundef nonnull align 1 dereferenceable(1) %3)
  ret void
}

; Function Attrs: mustprogress nounwind uwtable
define linkonce_odr hidden noundef signext i8 @_ZNK6Atomic8LoadImplIaNS_12PlatformLoadILm1EEEvEclEPVKa(ptr noundef nonnull align 1 dereferenceable(1) %0, ptr noundef %1) #1 comdat align 2 {
  %3 = alloca ptr, align 8
  %4 = alloca ptr, align 8
  %5 = alloca %"struct.Atomic::PlatformLoad", align 1
  store ptr %0, ptr %3, align 8
  store ptr %1, ptr %4, align 8
  %6 = load ptr, ptr %4, align 8
  %7 = call noundef signext i8 @_ZNK6Atomic12PlatformLoadILm1EEclIaEET_PVKS3_(ptr noundef nonnull align 1 dereferenceable(1) %5, ptr noundef %6)
  ret i8 %7
}

; Function Attrs: mustprogress nounwind uwtable
define linkonce_odr hidden void @_ZN11ScopedFenceIL15ScopedFenceType0EE6prefixEv(ptr noundef nonnull align 8 dereferenceable(8) %0) #1 comdat align 2 {
  %2 = alloca ptr, align 8
  store ptr %0, ptr %2, align 8
  %3 = load ptr, ptr %2, align 8
  call void @_ZN18ScopedFenceGeneralIL15ScopedFenceType0EE6prefixEv(ptr noundef nonnull align 1 dereferenceable(1) %3)
  ret void
}

; Function Attrs: mustprogress nounwind uwtable
define linkonce_odr hidden void @_ZN11ScopedFenceIL15ScopedFenceType0EED2Ev(ptr noundef nonnull align 8 dereferenceable(8) %0) unnamed_addr #1 comdat align 2 {
  %2 = alloca ptr, align 8
  store ptr %0, ptr %2, align 8
  %3 = load ptr, ptr %2, align 8
  call void @_ZN11ScopedFenceIL15ScopedFenceType0EE7postfixEv(ptr noundef nonnull align 8 dereferenceable(8) %3)
  ret void
}

; Function Attrs: mustprogress nounwind uwtable
define linkonce_odr hidden noundef signext i8 @_ZN6Atomic4loadIaEET_PVKS1_(ptr noundef %0) #1 comdat align 2 {
  %2 = alloca ptr, align 8
  %3 = alloca %"struct.Atomic::LoadImpl.2", align 1
  store ptr %0, ptr %2, align 8
  %4 = load ptr, ptr %2, align 8
  %5 = call noundef signext i8 @_ZNK6Atomic8LoadImplIaNS_12PlatformLoadILm1EEEvEclEPVKa(ptr noundef nonnull align 1 dereferenceable(1) %3, ptr noundef %4)
  ret i8 %5
}

; Function Attrs: mustprogress nounwind uwtable
define linkonce_odr hidden void @_ZN11ScopedFenceIL15ScopedFenceType0EEC2EPv(ptr noundef nonnull align 8 dereferenceable(8) %0, ptr noundef %1) unnamed_addr #1 comdat align 2 {
  %3 = alloca ptr, align 8
  %4 = alloca ptr, align 8
  store ptr %0, ptr %3, align 8
  store ptr %1, ptr %4, align 8
  %5 = load ptr, ptr %3, align 8
  %6 = getelementptr inbounds %class.ScopedFence, ptr %5, i32 0, i32 0
  %7 = load ptr, ptr %4, align 8
  store ptr %7, ptr %6, align 8
  call void @_ZN11ScopedFenceIL15ScopedFenceType0EE6prefixEv(ptr noundef nonnull align 8 dereferenceable(8) %5)
  ret void
}

; Function Attrs: mustprogress nounwind uwtable
define linkonce_odr hidden noundef ptr @_ZN8Universe4heapEv() #1 comdat align 2 {
  %1 = load ptr, ptr @_ZN8Universe14_collectedHeapE, align 8
  ret ptr %1
}

; Function Attrs: mustprogress nounwind uwtable
define linkonce_odr hidden void @_ZNK6Atomic20PlatformOrderedStoreILm1EL15ScopedFenceType2EEclIaEEvPVT_S4_(ptr noundef nonnull align 1 dereferenceable(1) %0, ptr noundef %1, i8 noundef signext %2) #1 comdat align 2 {
  %4 = alloca ptr, align 8
  %5 = alloca ptr, align 8
  %6 = alloca i8, align 1
  store ptr %0, ptr %4, align 8
  store ptr %1, ptr %5, align 8
  store i8 %2, ptr %6, align 1
  %7 = load i8, ptr %6, align 1
  %8 = load ptr, ptr %5, align 8
  %9 = call i8 asm sideeffect "xchgb ($2),$0", "=q,0,r,~{memory},~{dirflag},~{fpsr},~{flags}"(i8 %7, ptr %8) #4, !srcloc !7
  store i8 %9, ptr %6, align 1
  ret void
}

; Function Attrs: mustprogress nounwind uwtable
define linkonce_odr hidden noundef signext i8 @_ZNK6Atomic19PlatformOrderedLoadILm1EL15ScopedFenceType0EEclIaEET_PVKS4_(ptr noundef nonnull align 1 dereferenceable(1) %0, ptr noundef %1) #1 comdat align 2 {
  %3 = alloca ptr, align 8
  %4 = alloca ptr, align 8
  %5 = alloca %class.ScopedFence, align 8
  store ptr %0, ptr %3, align 8
  store ptr %1, ptr %4, align 8
  %6 = load ptr, ptr %4, align 8
  call void @_ZN11ScopedFenceIL15ScopedFenceType0EEC2EPv(ptr noundef nonnull align 8 dereferenceable(8) %5, ptr noundef %6)
  %7 = load ptr, ptr %4, align 8
  %8 = call noundef signext i8 @_ZN6Atomic4loadIaEET_PVKS1_(ptr noundef %7)
  call void @_ZN11ScopedFenceIL15ScopedFenceType0EED2Ev(ptr noundef nonnull align 8 dereferenceable(8) %5) #4
  ret i8 %8
}

; Function Attrs: mustprogress nounwind uwtable
define linkonce_odr hidden noundef ptr @_ZN13CollectedHeap10named_heapI14ShenandoahHeapEEPT_NS_4NameE(i32 noundef %0) #1 comdat align 2 {
  %2 = alloca i32, align 4
  %3 = alloca ptr, align 8
  store i32 %0, ptr %2, align 4
  %4 = call noundef ptr @_ZN8Universe4heapEv()
  store ptr %4, ptr %3, align 8
  %5 = load ptr, ptr %3, align 8
  ret ptr %5
}

; Function Attrs: mustprogress nounwind uwtable
define linkonce_odr hidden void @_ZNK6Atomic9StoreImplIaaNS_20PlatformOrderedStoreILm1EL15ScopedFenceType2EEEvEclEPVaa(ptr noundef nonnull align 1 dereferenceable(1) %0, ptr noundef %1, i8 noundef signext %2) #1 comdat align 2 {
  %4 = alloca ptr, align 8
  %5 = alloca ptr, align 8
  %6 = alloca i8, align 1
  %7 = alloca %"struct.Atomic::PlatformOrderedStore", align 1
  store ptr %0, ptr %4, align 8
  store ptr %1, ptr %5, align 8
  store i8 %2, ptr %6, align 1
  %8 = load ptr, ptr %5, align 8
  %9 = load i8, ptr %6, align 1
  call void @_ZNK6Atomic20PlatformOrderedStoreILm1EL15ScopedFenceType2EEclIaEEvPVT_S4_(ptr noundef nonnull align 1 dereferenceable(1) %7, ptr noundef %8, i8 noundef signext %9)
  ret void
}

; Function Attrs: mustprogress nounwind uwtable
define linkonce_odr hidden noundef signext i8 @_ZNK6Atomic8LoadImplIaNS_19PlatformOrderedLoadILm1EL15ScopedFenceType0EEEvEclEPVKa(ptr noundef nonnull align 1 dereferenceable(1) %0, ptr noundef %1) #1 comdat align 2 {
  %3 = alloca ptr, align 8
  %4 = alloca ptr, align 8
  %5 = alloca %"struct.Atomic::PlatformOrderedLoad", align 1
  store ptr %0, ptr %3, align 8
  store ptr %1, ptr %4, align 8
  %6 = load ptr, ptr %4, align 8
  %7 = call noundef signext i8 @_ZNK6Atomic19PlatformOrderedLoadILm1EL15ScopedFenceType0EEclIaEET_PVKS4_(ptr noundef nonnull align 1 dereferenceable(1) %5, ptr noundef %6)
  ret i8 %7
}

; Function Attrs: mustprogress nounwind uwtable
define linkonce_odr hidden noundef ptr @_ZN14ShenandoahHeap4heapEv() #1 comdat align 2 {
  %1 = call noundef ptr @_ZN13CollectedHeap10named_heapI14ShenandoahHeapEEPT_NS_4NameE(i32 noundef 6)
  ret ptr %1
}

; Function Attrs: mustprogress nounwind uwtable
define linkonce_odr hidden void @_ZN6Atomic19release_store_fenceIaaEEvPVT_T0_(ptr noundef %0, i8 noundef signext %1) #1 comdat align 2 {
  %3 = alloca ptr, align 8
  %4 = alloca i8, align 1
  %5 = alloca %"struct.Atomic::StoreImpl", align 1
  store ptr %0, ptr %3, align 8
  store i8 %1, ptr %4, align 1
  %6 = load ptr, ptr %3, align 8
  %7 = load i8, ptr %4, align 1
  call void @_ZNK6Atomic9StoreImplIaaNS_20PlatformOrderedStoreILm1EL15ScopedFenceType2EEEvEclEPVaa(ptr noundef nonnull align 1 dereferenceable(1) %5, ptr noundef %6, i8 noundef signext %7)
  ret void
}

; Function Attrs: mustprogress nounwind uwtable
define linkonce_odr hidden noundef signext i8 @_ZN6Atomic12load_acquireIaEET_PVKS1_(ptr noundef %0) #1 comdat align 2 {
  %2 = alloca ptr, align 8
  %3 = alloca %"struct.Atomic::LoadImpl", align 1
  store ptr %0, ptr %2, align 8
  %4 = load ptr, ptr %2, align 8
  %5 = call noundef signext i8 @_ZNK6Atomic8LoadImplIaNS_19PlatformOrderedLoadILm1EL15ScopedFenceType0EEEvEclEPVKa(ptr noundef nonnull align 1 dereferenceable(1) %3, ptr noundef %4)
  ret i8 %5
}

; Function Attrs: mustprogress nounwind uwtable
define hidden void @_ZN27ShenandoahMonitoringSupport15update_countersEv(ptr noundef nonnull align 8 dereferenceable(336) %0) #1 align 2 {
  %2 = alloca ptr, align 8
  %3 = alloca ptr, align 8
  %4 = alloca i64, align 8
  %5 = alloca i64, align 8
  store ptr %0, ptr %2, align 8
  %6 = load ptr, ptr %2, align 8
  call void @_ZN13MemoryService18track_memory_usageEv()
  %7 = load i8, ptr @UsePerfData, align 1
  %8 = trunc i8 %7 to i1
  br i1 %8, label %9, label %32

9:                                                ; preds = %1
  %10 = call noundef ptr @_ZN14ShenandoahHeap4heapEv()
  store ptr %10, ptr %3, align 8
  %11 = load ptr, ptr %3, align 8
  %12 = load ptr, ptr %11, align 8
  %13 = getelementptr inbounds ptr, ptr %12, i64 12
  %14 = load ptr, ptr %13, align 8
  %15 = call noundef i64 %14(ptr noundef nonnull align 8 dereferenceable(2657) %11)
  store i64 %15, ptr %4, align 8
  %16 = load ptr, ptr %3, align 8
  %17 = load ptr, ptr %16, align 8
  %18 = getelementptr inbounds ptr, ptr %17, i64 15
  %19 = load ptr, ptr %18, align 8
  %20 = call noundef i64 %19(ptr noundef nonnull align 8 dereferenceable(2657) %16)
  store i64 %20, ptr %5, align 8
  %21 = getelementptr inbounds %class.ShenandoahMonitoringSupport, ptr %6, i32 0, i32 3
  %22 = load ptr, ptr %21, align 8
  %23 = load ptr, ptr %22, align 8
  %24 = getelementptr inbounds ptr, ptr %23, i64 0
  %25 = load ptr, ptr %24, align 8
  call void %25(ptr noundef nonnull align 8 dereferenceable(32) %22)
  %26 = getelementptr inbounds %class.ShenandoahMonitoringSupport, ptr %6, i32 0, i32 4
  %27 = load ptr, ptr %26, align 8
  %28 = load i64, ptr %5, align 8
  %29 = load i64, ptr %4, align 8
  call void @_ZN14HSpaceCounters10update_allEmm(ptr noundef nonnull align 8 dereferenceable(24) %27, i64 noundef %28, i64 noundef %29)
  %30 = getelementptr inbounds %class.ShenandoahMonitoringSupport, ptr %6, i32 0, i32 5
  %31 = load ptr, ptr %30, align 8
  call void @_ZN28ShenandoahHeapRegionCounters6updateEv(ptr noundef nonnull align 8 dereferenceable(40) %31)
  call void @_ZN17MetaspaceCounters27update_performance_countersEv()
  br label %32

32:                                               ; preds = %9, %1
  ret void
}

; Function Attrs: mustprogress nounwind uwtable
define linkonce_odr hidden void @_ZN20ShenandoahSharedFlag5unsetEv(ptr noundef nonnull align 1 dereferenceable(129) %0) #1 comdat align 2 {
  %2 = alloca ptr, align 8
  store ptr %0, ptr %2, align 8
  %3 = load ptr, ptr %2, align 8
  %4 = getelementptr inbounds %struct.ShenandoahSharedFlag, ptr %3, i32 0, i32 1
  call void @_ZN6Atomic19release_store_fenceIaaEEvPVT_T0_(ptr noundef %4, i8 noundef signext 0)
  ret void
}

; Function Attrs: mustprogress nounwind uwtable
define linkonce_odr hidden noundef zeroext i1 @_ZNK20ShenandoahSharedFlag6is_setEv(ptr noundef nonnull align 1 dereferenceable(129) %0) #1 comdat align 2 {
  %2 = alloca ptr, align 8
  store ptr %0, ptr %2, align 8
  %3 = load ptr, ptr %2, align 8
  %4 = getelementptr inbounds %struct.ShenandoahSharedFlag, ptr %3, i32 0, i32 1
  %5 = call noundef signext i8 @_ZN6Atomic12load_acquireIaEET_PVKS1_(ptr noundef %4)
  %6 = sext i8 %5 to i32
  %7 = icmp eq i32 %6, 1
  ret i1 %7
}

; Function Attrs: mustprogress nounwind uwtable
define hidden void @_ZN36ShenandoahPeriodicCountersUpdateTask22handle_counters_updateEv(ptr noundef nonnull align 8 dereferenceable(288) %0) #1 align 2 {
  %2 = alloca ptr, align 8
  store ptr %0, ptr %2, align 8
  %3 = load ptr, ptr %2, align 8
  %4 = getelementptr inbounds %class.ShenandoahPeriodicCountersUpdateTask, ptr %3, i32 0, i32 1
  %5 = call noundef zeroext i1 @_ZNK20ShenandoahSharedFlag6is_setEv(ptr noundef nonnull align 1 dereferenceable(129) %4)
  br i1 %5, label %6, label %10

6:                                                ; preds = %1
  %7 = getelementptr inbounds %class.ShenandoahPeriodicCountersUpdateTask, ptr %3, i32 0, i32 1
  call void @_ZN20ShenandoahSharedFlag5unsetEv(ptr noundef nonnull align 1 dereferenceable(129) %7)
  %8 = getelementptr inbounds %class.ShenandoahPeriodicCountersUpdateTask, ptr %3, i32 0, i32 3
  %9 = load ptr, ptr %8, align 8
  call void @_ZN27ShenandoahMonitoringSupport15update_countersEv(ptr noundef nonnull align 8 dereferenceable(336) %9)
  br label %10

10:                                               ; preds = %6, %1
  ret void
}

; Function Attrs: mustprogress nounwind uwtable
define hidden void @_ZN36ShenandoahPeriodicCountersUpdateTask28handle_force_counters_updateEv(ptr noundef nonnull align 8 dereferenceable(288) %0) #1 align 2 {
  %2 = alloca ptr, align 8
  store ptr %0, ptr %2, align 8
  %3 = load ptr, ptr %2, align 8
  %4 = getelementptr inbounds %class.ShenandoahPeriodicCountersUpdateTask, ptr %3, i32 0, i32 2
  %5 = call noundef zeroext i1 @_ZNK20ShenandoahSharedFlag6is_setEv(ptr noundef nonnull align 1 dereferenceable(129) %4)
  br i1 %5, label %6, label %10

6:                                                ; preds = %1
  %7 = getelementptr inbounds %class.ShenandoahPeriodicCountersUpdateTask, ptr %3, i32 0, i32 1
  call void @_ZN20ShenandoahSharedFlag5unsetEv(ptr noundef nonnull align 1 dereferenceable(129) %7)
  %8 = getelementptr inbounds %class.ShenandoahPeriodicCountersUpdateTask, ptr %3, i32 0, i32 3
  %9 = load ptr, ptr %8, align 8
  call void @_ZN27ShenandoahMonitoringSupport15update_countersEv(ptr noundef nonnull align 8 dereferenceable(336) %9)
  br label %10

10:                                               ; preds = %6, %1
  ret void
}

; Function Attrs: mustprogress nounwind uwtable
define hidden void @_ZN36ShenandoahPeriodicCountersUpdateTask4taskEv(ptr noundef nonnull align 8 dereferenceable(288) %0) unnamed_addr #1 align 2 {
  %2 = alloca ptr, align 8
  store ptr %0, ptr %2, align 8
  %3 = load ptr, ptr %2, align 8
  call void @_ZN36ShenandoahPeriodicCountersUpdateTask28handle_force_counters_updateEv(ptr noundef nonnull align 8 dereferenceable(288) %3)
  call void @_ZN36ShenandoahPeriodicCountersUpdateTask22handle_counters_updateEv(ptr noundef nonnull align 8 dereferenceable(288) %3)
  ret void
}