; Function Attrs: mustprogress nounwind uwtable
define hidden void @_ZN36ShenandoahPeriodicCountersUpdateTask4taskEv(ptr noundef nonnull align 8 dereferenceable(288) %0) unnamed_addr #0 align 2 {
  %2 = getelementptr inbounds i8, ptr %0, i64 209
  %3 = load volatile i8, ptr %2, align 1
  tail call void asm sideeffect "", "~{memory},~{dirflag},~{fpsr},~{flags}"() #6, !srcloc !7
  %4 = icmp eq i8 %3, 1
  br i1 %4, label %5, label %_ZN36ShenandoahPeriodicCountersUpdateTask28handle_force_counters_updateEv.exit

5:                                                ; preds = %1
  %6 = getelementptr inbounds i8, ptr %0, i64 80
  %7 = tail call i8 asm sideeffect "xchgb ($2),$0", "=q,0,r,~{memory},~{dirflag},~{fpsr},~{flags}"(i8 0, ptr nonnull %6) #6, !srcloc !6
  %8 = getelementptr inbounds i8, ptr %0, i64 280
  %9 = load ptr, ptr %8, align 8
  tail call void @_ZN13MemoryService18track_memory_usageEv() #6
  %10 = load i8, ptr @UsePerfData, align 1
  %11 = trunc i8 %10 to i1
  br i1 %11, label %12, label %_ZN36ShenandoahPeriodicCountersUpdateTask28handle_force_counters_updateEv.exit

12:                                               ; preds = %5
  %13 = load ptr, ptr @_ZN8Universe14_collectedHeapE, align 8
  %14 = load ptr, ptr %13, align 8
  %15 = getelementptr inbounds i8, ptr %14, i64 96
  %16 = load ptr, ptr %15, align 8
  %17 = tail call noundef i64 %16(ptr noundef nonnull align 8 dereferenceable(2657) %13) #6
  %18 = load ptr, ptr %13, align 8
  %19 = getelementptr inbounds i8, ptr %18, i64 120
  %20 = load ptr, ptr %19, align 8
  %21 = tail call noundef i64 %20(ptr noundef nonnull align 8 dereferenceable(2657) %13) #6
  %22 = getelementptr inbounds i8, ptr %9, i64 24
  %23 = load ptr, ptr %22, align 8
  %24 = load ptr, ptr %23, align 8
  %25 = load ptr, ptr %24, align 8
  tail call void %25(ptr noundef nonnull align 8 dereferenceable(32) %23) #6
  %26 = getelementptr inbounds i8, ptr %9, i64 32
  %27 = load ptr, ptr %26, align 8
  tail call void @_ZN14HSpaceCounters10update_allEmm(ptr noundef nonnull align 8 dereferenceable(24) %27, i64 noundef %21, i64 noundef %17) #6
  %28 = getelementptr inbounds i8, ptr %9, i64 40
  %29 = load ptr, ptr %28, align 8
  tail call void @_ZN28ShenandoahHeapRegionCounters6updateEv(ptr noundef nonnull align 8 dereferenceable(40) %29) #6
  tail call void @_ZN17MetaspaceCounters27update_performance_countersEv() #6
  br label %_ZN36ShenandoahPeriodicCountersUpdateTask28handle_force_counters_updateEv.exit

_ZN36ShenandoahPeriodicCountersUpdateTask28handle_force_counters_updateEv.exit: ; preds = %1, %5, %12
  %30 = getelementptr inbounds i8, ptr %0, i64 80
  %31 = load volatile i8, ptr %30, align 8
  tail call void asm sideeffect "", "~{memory},~{dirflag},~{fpsr},~{flags}"() #6, !srcloc !7
  %32 = icmp eq i8 %31, 1
  br i1 %32, label %33, label %_ZN36ShenandoahPeriodicCountersUpdateTask22handle_counters_updateEv.exit

33:                                               ; preds = %_ZN36ShenandoahPeriodicCountersUpdateTask28handle_force_counters_updateEv.exit
  %34 = tail call i8 asm sideeffect "xchgb ($2),$0", "=q,0,r,~{memory},~{dirflag},~{fpsr},~{flags}"(i8 0, ptr nonnull %30) #6, !srcloc !6
  %35 = getelementptr inbounds i8, ptr %0, i64 280
  %36 = load ptr, ptr %35, align 8
  tail call void @_ZN13MemoryService18track_memory_usageEv() #6
  %37 = load i8, ptr @UsePerfData, align 1
  %38 = trunc i8 %37 to i1
  br i1 %38, label %39, label %_ZN36ShenandoahPeriodicCountersUpdateTask22handle_counters_updateEv.exit

39:                                               ; preds = %33
  %40 = load ptr, ptr @_ZN8Universe14_collectedHeapE, align 8
  %41 = load ptr, ptr %40, align 8
  %42 = getelementptr inbounds i8, ptr %41, i64 96
  %43 = load ptr, ptr %42, align 8
  %44 = tail call noundef i64 %43(ptr noundef nonnull align 8 dereferenceable(2657) %40) #6
  %45 = load ptr, ptr %40, align 8
  %46 = getelementptr inbounds i8, ptr %45, i64 120
  %47 = load ptr, ptr %46, align 8
  %48 = tail call noundef i64 %47(ptr noundef nonnull align 8 dereferenceable(2657) %40) #6
  %49 = getelementptr inbounds i8, ptr %36, i64 24
  %50 = load ptr, ptr %49, align 8
  %51 = load ptr, ptr %50, align 8
  %52 = load ptr, ptr %51, align 8
  tail call void %52(ptr noundef nonnull align 8 dereferenceable(32) %50) #6
  %53 = getelementptr inbounds i8, ptr %36, i64 32
  %54 = load ptr, ptr %53, align 8
  tail call void @_ZN14HSpaceCounters10update_allEmm(ptr noundef nonnull align 8 dereferenceable(24) %54, i64 noundef %48, i64 noundef %44) #6
  %55 = getelementptr inbounds i8, ptr %36, i64 40
  %56 = load ptr, ptr %55, align 8
  tail call void @_ZN28ShenandoahHeapRegionCounters6updateEv(ptr noundef nonnull align 8 dereferenceable(40) %56) #6
  tail call void @_ZN17MetaspaceCounters27update_performance_countersEv() #6
  br label %_ZN36ShenandoahPeriodicCountersUpdateTask22handle_counters_updateEv.exit

_ZN36ShenandoahPeriodicCountersUpdateTask22handle_counters_updateEv.exit: ; preds = %_ZN36ShenandoahPeriodicCountersUpdateTask28handle_force_counters_updateEv.exit, %33, %39
  ret void
}